target datalayout = "e-m:e-p270:32:32-p271:32:32-p272:64:64-i64:64-i128:128-f80:128-n8:16:32:64-S128"
target triple = "x86_64-pc-linux-gnu"

%class.Metadata = type { ptr }
%class.AccessFlags = type { i32 }
%class.nmethod = type <{ %class.CodeBlob.base, [2 x i8], i64, i64, ptr, %union.anon, ptr, ptr, ptr, ptr, ptr, ptr, ptr, i16, i16, i32, i32, i32, i32, i32, i32, i32, i16, i16, i16, i16, i16, i16, i32, i32, i32, i32, i32, i8, i8, i8, i8, i8, i8, [2 x i8] }>
%class.CodeBlob.base = type <{ ptr, ptr, ptr, i32, i32, i32, i32, i32, i32, i16, i16, i8, i8 }>
%union.anon = type { ptr }
%class.CodeBlob = type <{ ptr, ptr, ptr, i32, i32, i32, i32, i32, i32, i16, i16, i8, i8, [2 x i8] }>
%class.Method = type { %class.Metadata, ptr, ptr, ptr, ptr, %class.AccessFlags, i32, %class.MethodFlags, i16, %class.JfrTraceFlag, ptr, ptr, ptr, ptr }
%class.MethodFlags = type { i32 }
%class.JfrTraceFlag = type { i16 }
%class.JVMCINMethodData = type { i8, i32, i32, ptr }

@.str.11 = private unnamed_addr constant [4 x i8] c"osr\00", align 1
@.str.12 = private unnamed_addr constant [4 x i8] c"cnt\00", align 1
@.str.13 = private unnamed_addr constant [4 x i8] c"c2n\00", align 1
@.str.21 = private unnamed_addr constant [17 x i8] c" compile_id='%d'\00", align 1
@.str.22 = private unnamed_addr constant [19 x i8] c" compile_kind='%s'\00", align 1
@.str.23 = private unnamed_addr constant [15 x i8] c" compiler='%s'\00", align 1
@TieredCompilation = external global i8, align 1
@.str.24 = private unnamed_addr constant [12 x i8] c" level='%d'\00", align 1
@.str.25 = private unnamed_addr constant [21 x i8] c" jvmci_mirror_name='\00", align 1
@.str.26 = private unnamed_addr constant [3 x i8] c"%s\00", align 1
@.str.27 = private unnamed_addr constant [2 x i8] c"'\00", align 1
@compilertype2name_tab = external global [4 x ptr], align 16
@.str.162 = private unnamed_addr constant [8 x i8] c"invalid\00", align 1

; Function Attrs: mustprogress nounwind uwtable
define linkonce_odr hidden noundef ptr @_ZNK8CodeBlob12header_beginEv(ptr noundef nonnull align 8 dereferenceable(54) %0) #1 comdat align 2 {
  %2 = alloca ptr, align 8
  store ptr %0, ptr %2, align 8
  %3 = load ptr, ptr %2, align 8
  ret ptr %3
}

; Function Attrs: mustprogress nounwind uwtable
define linkonce_odr hidden noundef ptr @_ZNK8CodeBlob8data_endEv(ptr noundef nonnull align 8 dereferenceable(54) %0) #1 comdat align 2 {
  %2 = alloca ptr, align 8
  store ptr %0, ptr %2, align 8
  %3 = load ptr, ptr %2, align 8
  %4 = call noundef ptr @_ZNK8CodeBlob12header_beginEv(ptr noundef nonnull align 8 dereferenceable(54) %3)
  %5 = getelementptr inbounds %class.CodeBlob, ptr %3, i32 0, i32 3
  %6 = load i32, ptr %5, align 8
  %7 = sext i32 %6 to i64
  %8 = getelementptr inbounds i8, ptr %4, i64 %7
  ret ptr %8
}

; Function Attrs: mustprogress nounwind uwtable
define linkonce_odr hidden noundef zeroext i1 @_ZNK11AccessFlags9is_nativeEv(ptr noundef nonnull align 4 dereferenceable(4) %0) #1 comdat align 2 {
  %2 = alloca ptr, align 8
  store ptr %0, ptr %2, align 8
  %3 = load ptr, ptr %2, align 8
  %4 = getelementptr inbounds %class.AccessFlags, ptr %3, i32 0, i32 0
  %5 = load i32, ptr %4, align 4
  %6 = and i32 %5, 256
  %7 = icmp ne i32 %6, 0
  ret i1 %7
}

; Function Attrs: mustprogress nounwind uwtable
define linkonce_odr hidden i32 @_ZNK6Method12access_flagsEv(ptr noundef nonnull align 8 dereferenceable(88) %0) #1 comdat align 2 {
  %2 = alloca %class.AccessFlags, align 4
  %3 = alloca ptr, align 8
  store ptr %0, ptr %3, align 8
  %4 = load ptr, ptr %3, align 8
  %5 = getelementptr inbounds %class.Method, ptr %4, i32 0, i32 5
  call void @llvm.memcpy.p0.p0.i64(ptr align 4 %2, ptr align 8 %5, i64 4, i1 false)
  %6 = getelementptr inbounds %class.AccessFlags, ptr %2, i32 0, i32 0
  %7 = load i32, ptr %6, align 4
  ret i32 %7
}

; Function Attrs: mustprogress nounwind uwtable
define linkonce_odr hidden noundef ptr @_ZNK8CodeBlob10data_beginEv(ptr noundef nonnull align 8 dereferenceable(54) %0) #1 comdat align 2 {
  %2 = alloca ptr, align 8
  store ptr %0, ptr %2, align 8
  %3 = load ptr, ptr %2, align 8
  %4 = call noundef ptr @_ZNK8CodeBlob12header_beginEv(ptr noundef nonnull align 8 dereferenceable(54) %3)
  %5 = getelementptr inbounds %class.CodeBlob, ptr %3, i32 0, i32 7
  %6 = load i32, ptr %5, align 8
  %7 = sext i32 %6 to i64
  %8 = getelementptr inbounds i8, ptr %4, i64 %7
  ret ptr %8
}

; Function Attrs: mustprogress nounwind uwtable
define linkonce_odr hidden noundef ptr @_ZNK7nmethod14jvmci_data_endEv(ptr noundef nonnull align 8 dereferenceable(214) %0) #1 comdat align 2 {
  %2 = alloca ptr, align 8
  store ptr %0, ptr %2, align 8
  %3 = load ptr, ptr %2, align 8
  %4 = call noundef ptr @_ZNK8CodeBlob8data_endEv(ptr noundef nonnull align 8 dereferenceable(54) %3)
  ret ptr %4
}

; Function Attrs: mustprogress nounwind uwtable
define linkonce_odr hidden noundef i32 @_ZNK6Method12intrinsic_idEv(ptr noundef nonnull align 8 dereferenceable(88) %0) #1 comdat align 2 {
  %2 = alloca ptr, align 8
  store ptr %0, ptr %2, align 8
  %3 = load ptr, ptr %2, align 8
  %4 = getelementptr inbounds %class.Method, ptr %3, i32 0, i32 8
  %5 = load i16, ptr %4, align 4
  %6 = zext i16 %5 to i32
  ret i32 %6
}

; Function Attrs: mustprogress nounwind uwtable
define linkonce_odr hidden noundef zeroext i1 @_ZNK6Method9is_nativeEv(ptr noundef nonnull align 8 dereferenceable(88) %0) #1 comdat align 2 {
  %2 = alloca ptr, align 8
  %3 = alloca %class.AccessFlags, align 4
  store ptr %0, ptr %2, align 8
  %4 = load ptr, ptr %2, align 8
  %5 = call i32 @_ZNK6Method12access_flagsEv(ptr noundef nonnull align 8 dereferenceable(88) %4)
  %6 = getelementptr inbounds %class.AccessFlags, ptr %3, i32 0, i32 0
  store i32 %5, ptr %6, align 4
  %7 = call noundef zeroext i1 @_ZNK11AccessFlags9is_nativeEv(ptr noundef nonnull align 4 dereferenceable(4) %3)
  ret i1 %7
}

; Function Attrs: mustprogress nounwind uwtable
define linkonce_odr hidden noundef ptr @_ZNK7nmethod16jvmci_data_beginEv(ptr noundef nonnull align 8 dereferenceable(214) %0) #1 comdat align 2 {
  %2 = alloca ptr, align 8
  store ptr %0, ptr %2, align 8
  %3 = load ptr, ptr %2, align 8
  %4 = call noundef ptr @_ZNK8CodeBlob10data_beginEv(ptr noundef nonnull align 8 dereferenceable(54) %3)
  %5 = getelementptr inbounds %class.nmethod, ptr %3, i32 0, i32 25
  %6 = load i16, ptr %5, align 2
  %7 = zext i16 %6 to i32
  %8 = sext i32 %7 to i64
  %9 = getelementptr inbounds i8, ptr %4, i64 %8
  ret ptr %9
}

; Function Attrs: mustprogress nounwind uwtable
define linkonce_odr hidden noundef i32 @_ZNK7nmethod15jvmci_data_sizeEv(ptr noundef nonnull align 8 dereferenceable(214) %0) #1 comdat align 2 {
  %2 = alloca ptr, align 8
  store ptr %0, ptr %2, align 8
  %3 = load ptr, ptr %2, align 8
  %4 = call noundef ptr @_ZNK7nmethod14jvmci_data_endEv(ptr noundef nonnull align 8 dereferenceable(214) %3)
  %5 = call noundef ptr @_ZNK7nmethod16jvmci_data_beginEv(ptr noundef nonnull align 8 dereferenceable(214) %3)
  %6 = ptrtoint ptr %4 to i64
  %7 = ptrtoint ptr %5 to i64
  %8 = sub i64 %6, %7
  %9 = trunc i64 %8 to i32
  ret i32 %9
}

; Function Attrs: mustprogress nounwind uwtable
define linkonce_odr hidden noundef ptr @_Z17compilertype2name12CompilerType(i8 noundef zeroext %0) #1 comdat {
  %2 = alloca i8, align 1
  store i8 %0, ptr %2, align 1
  %3 = load i8, ptr %2, align 1
  %4 = zext i8 %3 to i32
  %5 = icmp ult i32 %4, 4
  br i1 %5, label %6, label %11

6:                                                ; preds = %1
  %7 = load i8, ptr %2, align 1
  %8 = zext i8 %7 to i64
  %9 = getelementptr inbounds [4 x ptr], ptr @compilertype2name_tab, i64 0, i64 %8
  %10 = load ptr, ptr %9, align 8
  br label %12

11:                                               ; preds = %1
  br label %12

12:                                               ; preds = %11, %6
  %13 = phi ptr [ %10, %6 ], [ @.str.162, %11 ]
  ret ptr %13
}

; Function Attrs: mustprogress nounwind uwtable
define linkonce_odr hidden noundef zeroext i1 @_ZNK6Method32is_continuation_native_intrinsicEv(ptr noundef nonnull align 8 dereferenceable(88) %0) #1 comdat align 2 {
  %2 = alloca ptr, align 8
  store ptr %0, ptr %2, align 8
  %3 = load ptr, ptr %2, align 8
  %4 = call noundef i32 @_ZNK6Method12intrinsic_idEv(ptr noundef nonnull align 8 dereferenceable(88) %3)
  %5 = icmp eq i32 %4, 198
  br i1 %5, label %9, label %6

6:                                                ; preds = %1
  %7 = call noundef i32 @_ZNK6Method12intrinsic_idEv(ptr noundef nonnull align 8 dereferenceable(88) %3)
  %8 = icmp eq i32 %7, 199
  br label %9

9:                                                ; preds = %6, %1
  %10 = phi i1 [ true, %1 ], [ %8, %6 ]
  ret i1 %10
}

; Function Attrs: mustprogress nounwind uwtable
define linkonce_odr hidden noundef zeroext i1 @_ZNK7nmethod16is_native_methodEv(ptr noundef nonnull align 8 dereferenceable(214) %0) #1 comdat align 2 {
  %2 = alloca ptr, align 8
  store ptr %0, ptr %2, align 8
  %3 = load ptr, ptr %2, align 8
  %4 = getelementptr inbounds %class.nmethod, ptr %3, i32 0, i32 4
  %5 = load ptr, ptr %4, align 8
  %6 = icmp ne ptr %5, null
  br i1 %6, label %7, label %11

7:                                                ; preds = %1
  %8 = getelementptr inbounds %class.nmethod, ptr %3, i32 0, i32 4
  %9 = load ptr, ptr %8, align 8
  %10 = call noundef zeroext i1 @_ZNK6Method9is_nativeEv(ptr noundef nonnull align 8 dereferenceable(88) %9)
  br label %11

11:                                               ; preds = %7, %1
  %12 = phi i1 [ false, %1 ], [ %10, %7 ]
  ret i1 %12
}

; Function Attrs: mustprogress nounwind uwtable
define linkonce_odr hidden noundef ptr @_ZNK7nmethod6methodEv(ptr noundef nonnull align 8 dereferenceable(214) %0) #1 comdat align 2 {
  %2 = alloca ptr, align 8
  store ptr %0, ptr %2, align 8
  %3 = load ptr, ptr %2, align 8
  %4 = getelementptr inbounds %class.nmethod, ptr %3, i32 0, i32 4
  %5 = load ptr, ptr %4, align 8
  ret ptr %5
}

; Function Attrs: mustprogress nounwind uwtable
define linkonce_odr hidden noundef zeroext i1 @_ZNK7nmethod13is_osr_methodEv(ptr noundef nonnull align 8 dereferenceable(214) %0) #1 comdat align 2 {
  %2 = alloca ptr, align 8
  store ptr %0, ptr %2, align 8
  %3 = load ptr, ptr %2, align 8
  %4 = getelementptr inbounds %class.nmethod, ptr %3, i32 0, i32 15
  %5 = load i32, ptr %4, align 4
  %6 = icmp ne i32 %5, -1
  ret i1 %6
}

; Function Attrs: mustprogress nounwind uwtable
define linkonce_odr hidden noundef ptr @_ZN16JVMCINMethodData4nameEv(ptr noundef nonnull align 8 dereferenceable(24) %0) #1 comdat align 2 {
  %2 = alloca ptr, align 8
  store ptr %0, ptr %2, align 8
  %3 = load ptr, ptr %2, align 8
  %4 = getelementptr inbounds %class.JVMCINMethodData, ptr %3, i32 0, i32 0
  %5 = load i8, ptr %4, align 8
  %6 = trunc i8 %5 to i1
  br i1 %6, label %7, label %9

7:                                                ; preds = %1
  %8 = getelementptr inbounds i8, ptr %3, i64 24
  br label %10

9:                                                ; preds = %1
  br label %10

10:                                               ; preds = %9, %7
  %11 = phi ptr [ %8, %7 ], [ null, %9 ]
  ret ptr %11
}

; Function Attrs: mustprogress nounwind uwtable
define linkonce_odr hidden noundef ptr @_ZNK7nmethod18jvmci_nmethod_dataEv(ptr noundef nonnull align 8 dereferenceable(214) %0) #1 comdat align 2 {
  %2 = alloca ptr, align 8
  store ptr %0, ptr %2, align 8
  %3 = load ptr, ptr %2, align 8
  %4 = call noundef i32 @_ZNK7nmethod15jvmci_data_sizeEv(ptr noundef nonnull align 8 dereferenceable(214) %3)
  %5 = icmp eq i32 %4, 0
  br i1 %5, label %6, label %7

6:                                                ; preds = %1
  br label %9

7:                                                ; preds = %1
  %8 = call noundef ptr @_ZNK7nmethod16jvmci_data_beginEv(ptr noundef nonnull align 8 dereferenceable(214) %3)
  br label %9

9:                                                ; preds = %7, %6
  %10 = phi ptr [ null, %6 ], [ %8, %7 ]
  ret ptr %10
}

; Function Attrs: mustprogress nounwind uwtable
define linkonce_odr hidden noundef i32 @_ZNK7nmethod10comp_levelEv(ptr noundef nonnull align 8 dereferenceable(214) %0) #1 comdat align 2 {
  %2 = alloca ptr, align 8
  store ptr %0, ptr %2, align 8
  %3 = load ptr, ptr %2, align 8
  %4 = getelementptr inbounds %class.nmethod, ptr %3, i32 0, i32 33
  %5 = load i8, ptr %4, align 8
  %6 = sext i8 %5 to i32
  ret i32 %6
}

; Function Attrs: mustprogress nounwind uwtable
define hidden noundef ptr @_ZNK7nmethod13compiler_nameEv(ptr noundef nonnull align 8 dereferenceable(214) %0) #1 align 2 {
  %2 = alloca ptr, align 8
  store ptr %0, ptr %2, align 8
  %3 = load ptr, ptr %2, align 8
  %4 = getelementptr inbounds %class.nmethod, ptr %3, i32 0, i32 34
  %5 = load i8, ptr %4, align 1
  %6 = call noundef ptr @_Z17compilertype2name12CompilerType(i8 noundef zeroext %5)
  ret ptr %6
}

; Function Attrs: mustprogress nounwind uwtable
define hidden noundef ptr @_ZNK7nmethod12compile_kindEv(ptr noundef nonnull align 8 dereferenceable(214) %0) #1 align 2 {
  %2 = alloca ptr, align 8
  %3 = alloca ptr, align 8
  store ptr %0, ptr %3, align 8
  %4 = load ptr, ptr %3, align 8
  %5 = call noundef zeroext i1 @_ZNK7nmethod13is_osr_methodEv(ptr noundef nonnull align 8 dereferenceable(214) %4)
  br i1 %5, label %6, label %7

6:                                                ; preds = %1
  store ptr @.str.11, ptr %2, align 8
  br label %18

7:                                                ; preds = %1
  %8 = call noundef ptr @_ZNK7nmethod6methodEv(ptr noundef nonnull align 8 dereferenceable(214) %4)
  %9 = icmp ne ptr %8, null
  br i1 %9, label %10, label %17

10:                                               ; preds = %7
  %11 = call noundef zeroext i1 @_ZNK7nmethod16is_native_methodEv(ptr noundef nonnull align 8 dereferenceable(214) %4)
  br i1 %11, label %12, label %17

12:                                               ; preds = %10
  %13 = call noundef ptr @_ZNK7nmethod6methodEv(ptr noundef nonnull align 8 dereferenceable(214) %4)
  %14 = call noundef zeroext i1 @_ZNK6Method32is_continuation_native_intrinsicEv(ptr noundef nonnull align 8 dereferenceable(88) %13)
  br i1 %14, label %15, label %16

15:                                               ; preds = %12
  store ptr @.str.12, ptr %2, align 8
  br label %18

16:                                               ; preds = %12
  store ptr @.str.13, ptr %2, align 8
  br label %18

17:                                               ; preds = %10, %7
  store ptr null, ptr %2, align 8
  br label %18

18:                                               ; preds = %17, %16, %15, %6
  %19 = load ptr, ptr %2, align 8
  ret ptr %19
}

; Function Attrs: mustprogress nounwind uwtable
define linkonce_odr hidden noundef i32 @_ZNK7nmethod10compile_idEv(ptr noundef nonnull align 8 dereferenceable(214) %0) #1 comdat align 2 {
  %2 = alloca ptr, align 8
  store ptr %0, ptr %2, align 8
  %3 = load ptr, ptr %2, align 8
  %4 = getelementptr inbounds %class.nmethod, ptr %3, i32 0, i32 32
  %5 = load i32, ptr %4, align 4
  ret i32 %5
}

; Function Attrs: mustprogress nounwind uwtable
define hidden void @_ZNK7nmethod12log_identityEP9xmlStream(ptr noundef nonnull align 8 dereferenceable(214) %0, ptr noundef %1) #1 align 2 {
  %3 = alloca ptr, align 8
  %4 = alloca ptr, align 8
  %5 = alloca ptr, align 8
  %6 = alloca ptr, align 8
  store ptr %0, ptr %3, align 8
  store ptr %1, ptr %4, align 8
  %7 = load ptr, ptr %3, align 8
  %8 = load ptr, ptr %4, align 8
  %9 = call noundef i32 @_ZNK7nmethod10compile_idEv(ptr noundef nonnull align 8 dereferenceable(214) %7)
  call void (ptr, ptr, ...) @_ZN12outputStream5printEPKcz(ptr noundef nonnull align 8 dereferenceable(56) %8, ptr noundef @.str.21, i32 noundef %9)
  %10 = call noundef ptr @_ZNK7nmethod12compile_kindEv(ptr noundef nonnull align 8 dereferenceable(214) %7)
  store ptr %10, ptr %5, align 8
  %11 = load ptr, ptr %5, align 8
  %12 = icmp ne ptr %11, null
  br i1 %12, label %13, label %16

13:                                               ; preds = %2
  %14 = load ptr, ptr %4, align 8
  %15 = load ptr, ptr %5, align 8
  call void (ptr, ptr, ...) @_ZN12outputStream5printEPKcz(ptr noundef nonnull align 8 dereferenceable(56) %14, ptr noundef @.str.22, ptr noundef %15)
  br label %16

16:                                               ; preds = %13, %2
  %17 = load ptr, ptr %4, align 8
  %18 = call noundef ptr @_ZNK7nmethod13compiler_nameEv(ptr noundef nonnull align 8 dereferenceable(214) %7)
  call void (ptr, ptr, ...) @_ZN12outputStream5printEPKcz(ptr noundef nonnull align 8 dereferenceable(56) %17, ptr noundef @.str.23, ptr noundef %18)
  %19 = load i8, ptr @TieredCompilation, align 1
  %20 = trunc i8 %19 to i1
  br i1 %20, label %21, label %24

21:                                               ; preds = %16
  %22 = load ptr, ptr %4, align 8
  %23 = call noundef i32 @_ZNK7nmethod10comp_levelEv(ptr noundef nonnull align 8 dereferenceable(214) %7)
  call void (ptr, ptr, ...) @_ZN12outputStream5printEPKcz(ptr noundef nonnull align 8 dereferenceable(56) %22, ptr noundef @.str.24, i32 noundef %23)
  br label %24

24:                                               ; preds = %21, %16
  %25 = call noundef ptr @_ZNK7nmethod18jvmci_nmethod_dataEv(ptr noundef nonnull align 8 dereferenceable(214) %7)
  %26 = icmp ne ptr %25, null
  br i1 %26, label %27, label %38

27:                                               ; preds = %24
  %28 = call noundef ptr @_ZNK7nmethod18jvmci_nmethod_dataEv(ptr noundef nonnull align 8 dereferenceable(214) %7)
  %29 = call noundef ptr @_ZN16JVMCINMethodData4nameEv(ptr noundef nonnull align 8 dereferenceable(24) %28)
  store ptr %29, ptr %6, align 8
  %30 = load ptr, ptr %6, align 8
  %31 = icmp ne ptr %30, null
  br i1 %31, label %32, label %37

32:                                               ; preds = %27
  %33 = load ptr, ptr %4, align 8
  call void (ptr, ptr, ...) @_ZN12outputStream5printEPKcz(ptr noundef nonnull align 8 dereferenceable(56) %33, ptr noundef @.str.25)
  %34 = load ptr, ptr %4, align 8
  %35 = load ptr, ptr %6, align 8
  call void (ptr, ptr, ...) @_ZN9xmlStream4textEPKcz(ptr noundef nonnull align 8 dereferenceable(152) %34, ptr noundef @.str.26, ptr noundef %35)
  %36 = load ptr, ptr %4, align 8
  call void (ptr, ptr, ...) @_ZN12outputStream5printEPKcz(ptr noundef nonnull align 8 dereferenceable(56) %36, ptr noundef @.str.27)
  br label %37

37:                                               ; preds = %32, %27
  br label %38

38:                                               ; preds = %37, %24
  ret void
}