; Function Attrs: mustprogress nounwind uwtable
define hidden void @_ZNK7nmethod12log_identityEP9xmlStream(ptr noundef nonnull align 8 dereferenceable(214) %0, ptr noundef nonnull %1) local_unnamed_addr #0 align 2 {
  %3 = getelementptr inbounds i8, ptr %0, i64 204
  %4 = load i32, ptr %3, align 4
  tail call void (ptr, ptr, ...) @_ZN12outputStream5printEPKcz(ptr noundef nonnull align 8 dereferenceable(56) %1, ptr noundef nonnull @.str.21, i32 noundef %4) #23
  %5 = getelementptr inbounds i8, ptr %0, i64 148
  %6 = load i32, ptr %5, align 4
  %.not2.i = icmp eq i32 %6, -1
  br i1 %.not2.i, label %7, label %_ZNK7nmethod12compile_kindEv.exit

7:                                                ; preds = %2
  %8 = getelementptr inbounds i8, ptr %0, i64 72
  %9 = load ptr, ptr %8, align 8
  %.not.i = icmp eq ptr %9, null
  br i1 %.not.i, label %_ZNK7nmethod12compile_kindEv.exit.thread, label %_ZNK7nmethod16is_native_methodEv.exit.i

_ZNK7nmethod16is_native_methodEv.exit.i:          ; preds = %7
  %10 = getelementptr inbounds i8, ptr %9, i64 40
  %.sroa.0.0.copyload.i.i.i.i = load i32, ptr %10, align 8
  %11 = and i32 %.sroa.0.0.copyload.i.i.i.i, 256
  %.not3.i = icmp eq i32 %11, 0
  br i1 %.not3.i, label %_ZNK7nmethod12compile_kindEv.exit.thread, label %12

12:                                               ; preds = %_ZNK7nmethod16is_native_methodEv.exit.i
  %13 = getelementptr inbounds i8, ptr %9, i64 52
  %14 = load i16, ptr %13, align 4
  %15 = and i16 %14, -2
  %spec.select.i.i = icmp eq i16 %15, 198
  %.str.12..str.13.i = select i1 %spec.select.i.i, ptr @.str.12, ptr @.str.13
  br label %_ZNK7nmethod12compile_kindEv.exit

_ZNK7nmethod12compile_kindEv.exit:                ; preds = %12, %2
  %.0.i = phi ptr [ @.str.11, %2 ], [ %.str.12..str.13.i, %12 ]
  tail call void (ptr, ptr, ...) @_ZN12outputStream5printEPKcz(ptr noundef nonnull align 8 dereferenceable(56) %1, ptr noundef nonnull @.str.22, ptr noundef nonnull %.0.i) #23
  br label %_ZNK7nmethod12compile_kindEv.exit.thread

_ZNK7nmethod12compile_kindEv.exit.thread:         ; preds = %7, %_ZNK7nmethod16is_native_methodEv.exit.i, %_ZNK7nmethod12compile_kindEv.exit
  %16 = getelementptr inbounds i8, ptr %0, i64 209
  %17 = load i8, ptr %16, align 1
  %18 = icmp ult i8 %17, 4
  br i1 %18, label %19, label %_ZNK7nmethod13compiler_nameEv.exit

19:                                               ; preds = %_ZNK7nmethod12compile_kindEv.exit.thread
  %20 = zext nneg i8 %17 to i64
  %21 = getelementptr inbounds [4 x ptr], ptr @compilertype2name_tab, i64 0, i64 %20
  %22 = load ptr, ptr %21, align 8
  br label %_ZNK7nmethod13compiler_nameEv.exit

_ZNK7nmethod13compiler_nameEv.exit:               ; preds = %_ZNK7nmethod12compile_kindEv.exit.thread, %19
  %23 = phi ptr [ %22, %19 ], [ @.str.162, %_ZNK7nmethod12compile_kindEv.exit.thread ]
  tail call void (ptr, ptr, ...) @_ZN12outputStream5printEPKcz(ptr noundef nonnull align 8 dereferenceable(56) %1, ptr noundef nonnull @.str.23, ptr noundef %23) #23
  %24 = load i8, ptr @TieredCompilation, align 1
  %25 = trunc i8 %24 to i1
  br i1 %25, label %26, label %30

26:                                               ; preds = %_ZNK7nmethod13compiler_nameEv.exit
  %27 = getelementptr inbounds i8, ptr %0, i64 208
  %28 = load i8, ptr %27, align 8
  %29 = sext i8 %28 to i32
  tail call void (ptr, ptr, ...) @_ZN12outputStream5printEPKcz(ptr noundef nonnull align 8 dereferenceable(56) %1, ptr noundef nonnull @.str.24, i32 noundef %29) #23
  br label %30

30:                                               ; preds = %26, %_ZNK7nmethod13compiler_nameEv.exit
  %31 = getelementptr inbounds i8, ptr %0, i64 24
  %32 = load i32, ptr %31, align 8
  %33 = sext i32 %32 to i64
  %34 = getelementptr inbounds i8, ptr %0, i64 %33
  %35 = getelementptr inbounds i8, ptr %0, i64 40
  %36 = load i32, ptr %35, align 8
  %37 = sext i32 %36 to i64
  %38 = getelementptr inbounds i8, ptr %0, i64 %37
  %39 = getelementptr inbounds i8, ptr %0, i64 182
  %40 = load i16, ptr %39, align 2
  %41 = zext i16 %40 to i64
  %42 = getelementptr inbounds i8, ptr %38, i64 %41
  %43 = ptrtoint ptr %34 to i64
  %44 = ptrtoint ptr %42 to i64
  %45 = sub i64 %43, %44
  %46 = and i64 %45, 4294967295
  %47 = icmp eq i64 %46, 0
  br i1 %47, label %53, label %48

48:                                               ; preds = %30
  %49 = load i8, ptr %42, align 8
  %50 = trunc i8 %49 to i1
  br i1 %50, label %51, label %53

51:                                               ; preds = %48
  %52 = getelementptr inbounds i8, ptr %42, i64 24
  tail call void (ptr, ptr, ...) @_ZN12outputStream5printEPKcz(ptr noundef nonnull align 8 dereferenceable(56) %1, ptr noundef nonnull @.str.25) #23
  tail call void (ptr, ptr, ...) @_ZN9xmlStream4textEPKcz(ptr noundef nonnull align 8 dereferenceable(152) %1, ptr noundef nonnull @.str.26, ptr noundef nonnull %52) #23
  tail call void (ptr, ptr, ...) @_ZN12outputStream5printEPKcz(ptr noundef nonnull align 8 dereferenceable(56) %1, ptr noundef nonnull @.str.27) #23
  br label %53

53:                                               ; preds = %48, %51, %30
  ret void
}